; Function Attrs: mustprogress uwtable
define internal fastcc void @"_ZZN11opencv_test29SobelEdgeDetector_OpenCV_Test12PerfTestBodyEvENK3$_0clERKN2cv3MatERS3_"(ptr nocapture noundef nonnull readonly align 8 dereferenceable(24) %0, ptr noundef nonnull align 8 dereferenceable(96) %1, ptr noundef nonnull align 8 dereferenceable(96) %2) unnamed_addr #3 align 2 personality ptr @__gxx_personality_v0 {
  %4 = alloca %"class.cv::_InputArray", align 8
  %5 = alloca %"class.cv::_OutputArray", align 8
  %6 = alloca %"class.cv::_InputArray", align 8
  %7 = alloca %"class.cv::_OutputArray", align 8
  %8 = alloca %"class.cv::_InputArray", align 8
  %9 = alloca %"class.cv::MatExpr", align 8
  %10 = alloca %"class.cv::MatExpr", align 8
  %11 = alloca %"class.cv::_InputArray", align 8
  %12 = alloca %"class.cv::MatExpr", align 8
  %13 = alloca %"class.cv::_InputArray", align 8
  %14 = alloca %"class.cv::_OutputArray", align 8
  %15 = alloca %"class.cv::_OutputArray", align 8
  %16 = getelementptr inbounds i8, ptr %4, i64 16
  store i32 0, ptr %16, align 8
  %17 = getelementptr inbounds i8, ptr %4, i64 20
  store i32 0, ptr %17, align 4
  store i32 16842752, ptr %4, align 8
  %18 = getelementptr inbounds i8, ptr %4, i64 8
  store ptr %1, ptr %18, align 8
  %19 = load ptr, ptr %0, align 8
  %20 = getelementptr inbounds i8, ptr %5, i64 8
  %21 = getelementptr inbounds i8, ptr %5, i64 16
  store i64 0, ptr %21, align 8
  store i32 33619968, ptr %5, align 8
  store ptr %19, ptr %20, align 8
  call void @_ZN2cv5SobelERKNS_11_InputArrayERKNS_12_OutputArrayEiiiiddi(ptr noundef nonnull align 8 dereferenceable(24) %4, ptr noundef nonnull align 8 dereferenceable(24) %5, i32 noundef 5, i32 noundef 1, i32 noundef 0, i32 noundef 3, double noundef 1.000000e+00, double noundef 0.000000e+00, i32 noundef 4)
  %22 = getelementptr inbounds i8, ptr %6, i64 16
  store i32 0, ptr %22, align 8
  %23 = getelementptr inbounds i8, ptr %6, i64 20
  store i32 0, ptr %23, align 4
  store i32 16842752, ptr %6, align 8
  %24 = getelementptr inbounds i8, ptr %6, i64 8
  store ptr %1, ptr %24, align 8
  %25 = getelementptr inbounds i8, ptr %0, i64 8
  %26 = load ptr, ptr %25, align 8
  %27 = getelementptr inbounds i8, ptr %7, i64 8
  %28 = getelementptr inbounds i8, ptr %7, i64 16
  store i64 0, ptr %28, align 8
  store i32 33619968, ptr %7, align 8
  store ptr %26, ptr %27, align 8
  call void @_ZN2cv5SobelERKNS_11_InputArrayERKNS_12_OutputArrayEiiiiddi(ptr noundef nonnull align 8 dereferenceable(24) %6, ptr noundef nonnull align 8 dereferenceable(24) %7, i32 noundef 5, i32 noundef 0, i32 noundef 1, i32 noundef 3, double noundef 1.000000e+00, double noundef 0.000000e+00, i32 noundef 4)
  %29 = load ptr, ptr %0, align 8
  %30 = getelementptr inbounds i8, ptr %11, i64 16
  store i32 0, ptr %30, align 8
  %31 = getelementptr inbounds i8, ptr %11, i64 20
  store i32 0, ptr %31, align 4
  store i32 16842752, ptr %11, align 8
  %32 = getelementptr inbounds i8, ptr %11, i64 8
  store ptr %29, ptr %32, align 8
  call void @_ZNK2cv3Mat3mulERKNS_11_InputArrayEd(ptr dead_on_unwind nonnull writable sret(%"class.cv::MatExpr") align 8 %10, ptr noundef nonnull align 8 dereferenceable(96) %29, ptr noundef nonnull align 8 dereferenceable(24) %11, double noundef 1.000000e+00)
  %33 = load ptr, ptr %25, align 8
  %34 = getelementptr inbounds i8, ptr %13, i64 16
  store i32 0, ptr %34, align 8
  %35 = getelementptr inbounds i8, ptr %13, i64 20
  store i32 0, ptr %35, align 4
  store i32 16842752, ptr %13, align 8
  %36 = getelementptr inbounds i8, ptr %13, i64 8
  store ptr %33, ptr %36, align 8
  invoke void @_ZNK2cv3Mat3mulERKNS_11_InputArrayEd(ptr dead_on_unwind nonnull writable sret(%"class.cv::MatExpr") align 8 %12, ptr noundef nonnull align 8 dereferenceable(96) %33, ptr noundef nonnull align 8 dereferenceable(24) %13, double noundef 1.000000e+00)
          to label %37 unwind label %57

37:                                               ; preds = %3
  invoke void @_ZN2cvplERKNS_7MatExprES2_(ptr dead_on_unwind nonnull writable sret(%"class.cv::MatExpr") align 8 %9, ptr noundef nonnull align 8 dereferenceable(352) %10, ptr noundef nonnull align 8 dereferenceable(352) %12)
          to label %38 unwind label %59

38:                                               ; preds = %37
  invoke void @_ZN2cv11_InputArrayC1ERKNS_7MatExprE(ptr noundef nonnull align 8 dereferenceable(24) %8, ptr noundef nonnull align 8 dereferenceable(352) %9)
          to label %39 unwind label %61

39:                                               ; preds = %38
  %40 = getelementptr inbounds i8, ptr %0, i64 16
  %41 = load ptr, ptr %40, align 8
  %42 = getelementptr inbounds i8, ptr %14, i64 8
  %43 = getelementptr inbounds i8, ptr %14, i64 16
  store i64 0, ptr %43, align 8
  store i32 33619968, ptr %14, align 8
  store ptr %41, ptr %42, align 8
  invoke void @_ZN2cv4sqrtERKNS_11_InputArrayERKNS_12_OutputArrayE(ptr noundef nonnull align 8 dereferenceable(24) %8, ptr noundef nonnull align 8 dereferenceable(24) %14)
          to label %44 unwind label %63

44:                                               ; preds = %39
  %45 = getelementptr inbounds i8, ptr %9, i64 208
  call void @_ZN2cv3MatD1Ev(ptr noundef nonnull align 8 dereferenceable(96) %45) #25
  %46 = getelementptr inbounds i8, ptr %9, i64 112
  call void @_ZN2cv3MatD1Ev(ptr noundef nonnull align 8 dereferenceable(96) %46) #25
  %47 = getelementptr inbounds i8, ptr %9, i64 16
  call void @_ZN2cv3MatD1Ev(ptr noundef nonnull align 8 dereferenceable(96) %47) #25
  %48 = getelementptr inbounds i8, ptr %12, i64 208
  call void @_ZN2cv3MatD1Ev(ptr noundef nonnull align 8 dereferenceable(96) %48) #25
  %49 = getelementptr inbounds i8, ptr %12, i64 112
  call void @_ZN2cv3MatD1Ev(ptr noundef nonnull align 8 dereferenceable(96) %49) #25
  %50 = getelementptr inbounds i8, ptr %12, i64 16
  call void @_ZN2cv3MatD1Ev(ptr noundef nonnull align 8 dereferenceable(96) %50) #25
  %51 = getelementptr inbounds i8, ptr %10, i64 208
  call void @_ZN2cv3MatD1Ev(ptr noundef nonnull align 8 dereferenceable(96) %51) #25
  %52 = getelementptr inbounds i8, ptr %10, i64 112
  call void @_ZN2cv3MatD1Ev(ptr noundef nonnull align 8 dereferenceable(96) %52) #25
  %53 = getelementptr inbounds i8, ptr %10, i64 16
  call void @_ZN2cv3MatD1Ev(ptr noundef nonnull align 8 dereferenceable(96) %53) #25
  %54 = load ptr, ptr %40, align 8
  %55 = getelementptr inbounds i8, ptr %15, i64 8
  %56 = getelementptr inbounds i8, ptr %15, i64 16
  store i64 0, ptr %56, align 8
  store i32 33619968, ptr %15, align 8
  store ptr %2, ptr %55, align 8
  call void @_ZNK2cv3Mat9convertToERKNS_12_OutputArrayEidd(ptr noundef nonnull align 8 dereferenceable(96) %54, ptr noundef nonnull align 8 dereferenceable(24) %15, i32 noundef 0, double noundef 1.000000e+00, double noundef 0.000000e+00)
  ret void

57:                                               ; preds = %3
  %58 = landingpad { ptr, i32 }
          cleanup
  br label %67

59:                                               ; preds = %37
  %60 = landingpad { ptr, i32 }
          cleanup
  br label %66

61:                                               ; preds = %38
  %62 = landingpad { ptr, i32 }
          cleanup
  br label %65

63:                                               ; preds = %39
  %64 = landingpad { ptr, i32 }
          cleanup
  br label %65

65:                                               ; preds = %63, %61
  %.pn17.pn = phi { ptr, i32 } [ %62, %61 ], [ %64, %63 ]
  call void @_ZN2cv7MatExprD2Ev(ptr noundef nonnull align 8 dereferenceable(352) %9) #25
  br label %66

66:                                               ; preds = %65, %59
  %.pn17.pn.pn = phi { ptr, i32 } [ %.pn17.pn, %65 ], [ %60, %59 ]
  call void @_ZN2cv7MatExprD2Ev(ptr noundef nonnull align 8 dereferenceable(352) %12) #25
  br label %67

67:                                               ; preds = %57, %66
  %.pn17.pn.pn.pn.pn = phi { ptr, i32 } [ %.pn17.pn.pn, %66 ], [ %58, %57 ]
  call void @_ZN2cv7MatExprD2Ev(ptr noundef nonnull align 8 dereferenceable(352) %10) #25
  resume { ptr, i32 } %.pn17.pn.pn.pn.pn
}